; Function Attrs: mustprogress nounwind uwtable
define hidden noundef zeroext i1 @_ZN7ciField19is_call_site_targetEv(ptr nocapture noundef nonnull readonly align 8 dereferenceable(80) %0) local_unnamed_addr #0 align 2 {
  %2 = load ptr, ptr @_ZN5ciEnv15_CallSite_klassE, align 8
  %3 = icmp eq ptr %2, null
  br i1 %3, label %13, label %4

4:                                                ; preds = %1
  %5 = getelementptr inbounds i8, ptr %0, i64 8
  %6 = load ptr, ptr %5, align 8
  %7 = tail call noundef zeroext i1 @_ZN7ciKlass14is_subclass_ofEPS_(ptr noundef nonnull align 8 dereferenceable(44) %6, ptr noundef nonnull %2) #8
  br i1 %7, label %8, label %13

8:                                                ; preds = %4
  %9 = getelementptr inbounds i8, ptr %0, i64 16
  %10 = load ptr, ptr %9, align 8
  %11 = tail call noundef ptr @_ZN15ciObjectFactory12vm_symbol_atE10vmSymbolID(i32 noundef 465) #8
  %12 = icmp eq ptr %10, %11
  br label %13

13:                                               ; preds = %4, %8, %1
  %.0 = phi i1 [ false, %1 ], [ false, %4 ], [ %12, %8 ]
  ret i1 %.0
}